; Function Attrs: nounwind uwtable
define hidden i32 @ir_emit_N(ptr nocapture noundef %0, i32 noundef %1, i32 noundef %2) local_unnamed_addr #0 {
  %4 = getelementptr inbounds i8, ptr %0, i64 8
  %5 = load i32, ptr %4, align 8
  %6 = sdiv i32 %2, 4
  %7 = add nsw i32 %5, %6
  %8 = getelementptr inbounds i8, ptr %0, i64 12
  %9 = load i32, ptr %8, align 4
  %.not22 = icmp slt i32 %7, %9
  %.pre30 = load ptr, ptr %0, align 8
  br i1 %.not22, label %._crit_edge, label %.lr.ph

.lr.ph:                                           ; preds = %3
  %10 = getelementptr inbounds i8, ptr %0, i64 20
  %.pre29 = load i32, ptr %10, align 4
  br label %11

11:                                               ; preds = %.lr.ph, %11
  %12 = phi i32 [ %.pre29, %.lr.ph ], [ %26, %11 ]
  %13 = phi ptr [ %.pre30, %.lr.ph ], [ %28, %11 ]
  %14 = phi i32 [ %9, %.lr.ph ], [ %29, %11 ]
  %15 = icmp slt i32 %14, 4096
  %16 = shl nsw i32 %14, 1
  %17 = icmp ult i32 %14, 8192
  %18 = add nuw nsw i32 %14, 4096
  %spec.select.i = select i1 %17, i32 8192, i32 %18
  %.sink.i = select i1 %15, i32 %16, i32 %spec.select.i
  store i32 %.sink.i, ptr %8, align 4
  %19 = sext i32 %12 to i64
  %20 = sub nsw i64 0, %19
  %21 = getelementptr inbounds %struct._ir_insn, ptr %13, i64 %20
  %22 = add nsw i32 %12, %.sink.i
  %23 = sext i32 %22 to i64
  %24 = shl nsw i64 %23, 4
  %25 = tail call ptr @_erealloc(ptr noundef %21, i64 noundef %24) #24
  %26 = load i32, ptr %10, align 4
  %27 = sext i32 %26 to i64
  %28 = getelementptr inbounds %struct._ir_insn, ptr %25, i64 %27
  store ptr %28, ptr %0, align 8
  %29 = load i32, ptr %8, align 4
  %.not = icmp slt i32 %7, %29
  br i1 %.not, label %._crit_edge, label %11

._crit_edge:                                      ; preds = %11, %3
  %30 = phi ptr [ %.pre30, %3 ], [ %28, %11 ]
  %31 = add nsw i32 %6, 1
  %32 = add i32 %31, %5
  store i32 %32, ptr %4, align 8
  %33 = sext i32 %5 to i64
  %34 = getelementptr inbounds %struct._ir_insn, ptr %30, i64 %33
  %35 = shl i32 %2, 16
  %36 = or i32 %35, %1
  store i32 %36, ptr %34, align 8
  %.not2123 = icmp slt i32 %2, 0
  br i1 %.not2123, label %._crit_edge28, label %.lr.ph27.preheader

.lr.ph27.preheader:                               ; preds = %._crit_edge
  %37 = or i32 %2, 3
  %38 = shl nsw i64 %33, 4
  %39 = or disjoint i64 %38, 4
  %scevgep = getelementptr i8, ptr %30, i64 %39
  %40 = zext nneg i32 %37 to i64
  %41 = shl nuw nsw i64 %40, 2
  tail call void @llvm.memset.p0.i64(ptr noundef nonnull align 4 dereferenceable(1) %scevgep, i8 0, i64 %41, i1 false)
  br label %._crit_edge28

._crit_edge28:                                    ; preds = %.lr.ph27.preheader, %._crit_edge
  ret i32 %5
}